; Function Attrs: mustprogress uwtable
define void @_ZN8QuantLib17FailureToPayEventC1ERKNS_4DateERKNS_8CurrencyENS_9SeniorityEdS3_RKSt3mapIS7_dSt4lessIS7_ESaISt4pairIKS7_dEEE(ptr noundef nonnull align 8 dereferenceable(184) %this, ptr nocapture noundef nonnull readonly align 8 dereferenceable(8) %creditEventDate, ptr nocapture noundef nonnull readonly align 8 dereferenceable(16) %curr, i32 noundef %bondsSen, double noundef %defaultedAmount, ptr nocapture noundef nonnull readonly align 8 dereferenceable(8) %settleDate, ptr noundef nonnull align 8 dereferenceable(48) %recoveryRates) unnamed_addr #4 align 2 personality ptr @__gxx_personality_v0 {
entry:
  %ref.tmp = alloca %"class.QuantLib::DefaultType", align 8
  %agg.tmp = alloca %"class.QuantLib::Currency", align 8
  %0 = getelementptr inbounds i8, ptr %this, i64 184
  store ptr getelementptr inbounds inrange(-16, 16) (i8, ptr @_ZTVN8QuantLib10ObservableE, i64 16), ptr %0, align 8, !tbaa !14
  %1 = getelementptr inbounds i8, ptr %this, i64 200
  store i32 0, ptr %1, align 8, !tbaa !18
  %_M_parent.i.i.i.i.i.i = getelementptr inbounds i8, ptr %this, i64 208
  store ptr null, ptr %_M_parent.i.i.i.i.i.i, align 8, !tbaa !22
  %_M_left.i.i.i.i.i.i = getelementptr inbounds i8, ptr %this, i64 216
  store ptr %1, ptr %_M_left.i.i.i.i.i.i, align 8, !tbaa !23
  %_M_right.i.i.i.i.i.i = getelementptr inbounds i8, ptr %this, i64 224
  store ptr %1, ptr %_M_right.i.i.i.i.i.i, align 8, !tbaa !24
  %_M_node_count.i.i.i.i.i.i = getelementptr inbounds i8, ptr %this, i64 232
  store i64 0, ptr %_M_node_count.i.i.i.i.i.i, align 8, !tbaa !25
  call void @llvm.lifetime.start.p0(i64 16, ptr nonnull %ref.tmp) #26
  invoke void @_ZN8QuantLib11DefaultTypeC1ENS_13AtomicDefault4TypeENS_13Restructuring4TypeE(ptr noundef nonnull align 8 dereferenceable(16) %ref.tmp, i32 noundef 2, i32 noundef 0)
          to label %invoke.cont unwind label %lpad

invoke.cont:                                      ; preds = %entry
  %2 = load ptr, ptr %curr, align 8, !tbaa !41
  store ptr %2, ptr %agg.tmp, align 8, !tbaa !41
  %pn.i.i = getelementptr inbounds nuw i8, ptr %agg.tmp, i64 8
  %pn3.i.i = getelementptr inbounds nuw i8, ptr %curr, i64 8
  %3 = load ptr, ptr %pn3.i.i, align 8, !tbaa !16
  store ptr %3, ptr %pn.i.i, align 8, !tbaa !16
  %cmp.not.i.i.i = icmp eq ptr %3, null
  br i1 %cmp.not.i.i.i, label %_ZN8QuantLib8CurrencyC2ERKS0_.exit, label %if.then.i.i.i

if.then.i.i.i:                                    ; preds = %invoke.cont
  %use_count_.i.i.i.i = getelementptr inbounds nuw i8, ptr %3, i64 8
  %4 = atomicrmw add ptr %use_count_.i.i.i.i, i32 1 monotonic, align 4
  br label %_ZN8QuantLib8CurrencyC2ERKS0_.exit

_ZN8QuantLib8CurrencyC2ERKS0_.exit:               ; preds = %invoke.cont, %if.then.i.i.i
  invoke void @_ZN8QuantLib12DefaultEventC2ERKNS_4DateERKNS_11DefaultTypeENS_8CurrencyENS_9SeniorityES3_RKSt3mapIS8_dSt4lessIS8_ESaISt4pairIKS8_dEEE(ptr noundef nonnull align 8 dereferenceable(176) %this, ptr noundef nonnull getelementptr inbounds (i8, ptr @_ZTTN8QuantLib17FailureToPayEventE, i64 8), ptr noundef nonnull align 8 dereferenceable(8) %creditEventDate, ptr noundef nonnull align 8 dereferenceable(16) %ref.tmp, ptr noundef nonnull %agg.tmp, i32 noundef %bondsSen, ptr noundef nonnull align 8 dereferenceable(8) %settleDate, ptr noundef nonnull align 8 dereferenceable(48) %recoveryRates)
          to label %invoke.cont3 unwind label %lpad2

invoke.cont3:                                     ; preds = %_ZN8QuantLib8CurrencyC2ERKS0_.exit
  %5 = load ptr, ptr %pn.i.i, align 8, !tbaa !16
  %cmp.not.i.i.i3 = icmp eq ptr %5, null
  br i1 %cmp.not.i.i.i3, label %_ZN8QuantLib8CurrencyD2Ev.exit, label %if.then.i.i.i4

if.then.i.i.i4:                                   ; preds = %invoke.cont3
  %use_count_.i.i.i.i5 = getelementptr inbounds nuw i8, ptr %5, i64 8
  %6 = atomicrmw sub ptr %use_count_.i.i.i.i5, i32 1 acq_rel, align 4
  %cmp.i.i.i.i = icmp eq i32 %6, 1
  br i1 %cmp.i.i.i.i, label %if.then.i.i.i.i, label %_ZN8QuantLib8CurrencyD2Ev.exit

if.then.i.i.i.i:                                  ; preds = %if.then.i.i.i4
  %vtable.i.i.i.i = load ptr, ptr %5, align 8, !tbaa !14
  %vfn.i.i.i.i = getelementptr inbounds i8, ptr %vtable.i.i.i.i, i64 16
  %7 = load ptr, ptr %vfn.i.i.i.i, align 8
  invoke void %7(ptr noundef nonnull align 8 dereferenceable(16) %5)
          to label %.noexc.i.i.i unwind label %terminate.lpad.i.i.i

.noexc.i.i.i:                                     ; preds = %if.then.i.i.i.i
  %weak_count_.i.i.i.i.i = getelementptr inbounds nuw i8, ptr %5, i64 12
  %8 = atomicrmw sub ptr %weak_count_.i.i.i.i.i, i32 1 acq_rel, align 4
  %cmp.i.i.i.i.i = icmp eq i32 %8, 1
  br i1 %cmp.i.i.i.i.i, label %if.then.i.i.i.i.i, label %_ZN8QuantLib8CurrencyD2Ev.exit

if.then.i.i.i.i.i:                                ; preds = %.noexc.i.i.i
  %vtable.i.i.i.i.i = load ptr, ptr %5, align 8, !tbaa !14
  %vfn.i.i.i.i.i = getelementptr inbounds i8, ptr %vtable.i.i.i.i.i, i64 24
  %9 = load ptr, ptr %vfn.i.i.i.i.i, align 8
  invoke void %9(ptr noundef nonnull align 8 dereferenceable(16) %5)
          to label %_ZN8QuantLib8CurrencyD2Ev.exit unwind label %terminate.lpad.i.i.i

terminate.lpad.i.i.i:                             ; preds = %if.then.i.i.i.i.i, %if.then.i.i.i.i
  %10 = landingpad { ptr, i32 }
          catch ptr null
  %11 = extractvalue { ptr, i32 } %10, 0
  call void @__clang_call_terminate(ptr %11) #27
  unreachable

_ZN8QuantLib8CurrencyD2Ev.exit:                   ; preds = %invoke.cont3, %if.then.i.i.i4, %.noexc.i.i.i, %if.then.i.i.i.i.i
  call void @llvm.lifetime.end.p0(i64 16, ptr nonnull %ref.tmp) #26
  store ptr getelementptr inbounds inrange(-24, 64) (i8, ptr @_ZTVN8QuantLib17FailureToPayEventE, i64 24), ptr %this, align 8, !tbaa !14
  store ptr getelementptr inbounds inrange(-24, 16) (i8, ptr @_ZTVN8QuantLib17FailureToPayEventE, i64 112), ptr %0, align 8, !tbaa !14
  %defaultedAmount_ = getelementptr inbounds nuw i8, ptr %this, i64 176
  store double %defaultedAmount, ptr %defaultedAmount_, align 8, !tbaa !75
  ret void

lpad:                                             ; preds = %entry
  %12 = landingpad { ptr, i32 }
          cleanup
  br label %ehcleanup

lpad2:                                            ; preds = %_ZN8QuantLib8CurrencyC2ERKS0_.exit
  %13 = landingpad { ptr, i32 }
          cleanup
  call void @_ZN8QuantLib8CurrencyD2Ev(ptr noundef nonnull align 8 dereferenceable(16) %agg.tmp) #26
  br label %ehcleanup

ehcleanup:                                        ; preds = %lpad2, %lpad
  %.pn = phi { ptr, i32 } [ %13, %lpad2 ], [ %12, %lpad ]
  call void @llvm.lifetime.end.p0(i64 16, ptr nonnull %ref.tmp) #26
  call void @_ZN8QuantLib10ObservableD2Ev(ptr noundef nonnull align 8 dereferenceable(56) %0) #26
  resume { ptr, i32 } %.pn
}